(dp1
S'Fitted_events_diphoton'
p2
(lp3
F1.9535581887109317
asS'MC_exp_err_wgamma'
p4
(lp5
F13.813205210211326
asS'Fitted_err_zllgamma'
p6
(lp7
F0.10615246943195811
asS'Fitted_err_ttgamma'
p8
(lp9
F2.3734533462371235
asS'Fitted_events_jfake'
p10
(lp11
F46.252093654749345
asS'Fitted_events_efake'
p12
(lp13
F418.39503177983863
asS'names'
p14
(lp15
S'VRE_cuts'
p16
asS'MC_exp_events_diphoton'
p17
(lp18
F1.9535347817341135
asS'TOTAL_MC_EXP_BKG_err'
p19
(lp20
F35.06206482036901
asS'Fitted_events_photonjet'
p21
(lp22
F7.5873408706655416
asS'TOTAL_FITTED_bkg_events'
p23
(lp24
F550.63219177063263
asS'Fitted_events_wgamma'
p25
(lp26
F48.356386891297369
asS'Fitted_err_efake'
p27
(lp28
F25.791315886758856
asS'Fitted_err_photonjet'
p29
(lp30
F2.0611594199297056
asS'MC_exp_events_zllgamma'
p31
(lp32
F0.4536637173881285
asS'MC_exp_events_ttgamma'
p33
(lp34
F16.969919059811588
asS'Fitted_events_zllgamma'
p35
(lp36
F0.45365157812593898
asS'Fitted_events_znunugamma'
p37
(lp38
F4.5358886216777616
asS'MC_exp_err_jfake'
p39
(lp40
F16.088209950639236
asS'MC_exp_events_photonjet'
p41
(lp42
F14.139160439898284
asS'Fitted_err_diphoton'
p43
(lp44
F0.30397662419556915
asS'Fitted_err_wgamma'
p45
(lp46
F7.7851341756131047
asS'TOTAL_FITTED_bkg_events_err'
p47
(lp48
F31.614898823890467
asS'MC_exp_events_efake'
p49
(lp50
F418.39470083639026
asS'nobs'
p51
(lp52
F520
asS'MC_exp_events_znunugamma'
p53
(lp54
F4.5358287923066865
asS'Fitted_err_znunugamma'
p55
(lp56
F1.1514842624212445
asS'MC_exp_err_efake'
p57
(lp58
F25.96778796903201
asS'Fitted_events_ttgamma'
p59
(lp60
F23.098240185567061
asS'Fitted_err_jfake'
p61
(lp62
F15.983009087955343
asS'MC_exp_events_wgamma'
p63
(lp64
F49.594366027963012
asS'MC_exp_err_photonjet'
p65
(lp66
F6.3040350601115085
asS'MC_exp_events_jfake'
p67
(lp68
F46.251999866217375
asS'TOTAL_MC_EXP_BKG_events'
p69
(lp70
F552.29317352170938
asS'MC_exp_err_diphoton'
p71
(lp72
F0.30558347376920642
asS'MC_exp_err_ttgamma'
p73
(lp74
F2.9225181672460003
asS'MC_exp_err_znunugamma'
p75
(lp76
F1.1587385954639975
asS'MC_exp_err_zllgamma'
p77
(lp78
F0.10675252850190566
as.