(dp1
S'Fitted_events_diphoton'
p2
(lp3
F0.2302266642968574
aF0.25196108229424119
aF0.078019303347136235
asS'MC_exp_err_wgamma'
p4
(lp5
F0.40989086739149921
aF0.47591332488178117
aF0.35980847738657168
asS'Fitted_err_zllgamma'
p6
(lp7
F0.031924312776168237
aF0.010697261550378676
aF0.0042202642511986604
asS'Fitted_err_ttgamma'
p8
(lp9
F0.17941438394784981
aF0.17614403115676924
aF0.049487971301887541
asS'Fitted_events_jfake'
p10
(lp11
F0.15100024247981009
aF0.14100024539965189
aF0.094000174457078603
asS'Fitted_events_efake'
p12
(lp13
F0.21770032546035264
aF0.038800088910585839
aF0.063200121838973528
asS'names'
p14
(lp15
S'SRL_cuts'
p16
aS'SRM_cuts'
p17
aS'SRH_cuts'
p18
asS'MC_exp_events_diphoton'
p19
(lp20
F0.2302208024982903
aF0.25195539386963639
aF0.07801998610428057
asS'TOTAL_MC_EXP_BKG_err'
p21
(lp22
F0.97770129110173065
aF0.71627513039293833
aF0.54175162417819378
asS'Fitted_events_photonjet'
p23
(lp24
F0.48869101625711886
aF0.1724615524482295
aF0.067947867667923073
asS'TOTAL_FITTED_bkg_events'
p25
(lp26
F2.673063559700473
aF2.5533643159975847
aF2.5526680333040379
asS'Fitted_events_wgamma'
p27
(lp28
F0.54845983409444921
aF0.70282539689021206
aF1.0775374378605644
asS'Fitted_err_efake'
p29
(lp30
F0.082840167149234409
aF0.027393444053316077
aF0.036477667763971898
asS'Fitted_err_photonjet'
p31
(lp32
F0.28897237978633578
aF0.09900268914706277
aF0.014373929141355856
asS'MC_exp_events_zllgamma'
p33
(lp34
F0.025443250962271406
aF0.025443250962271406
aF0.004759135071683406
asS'MC_exp_events_ttgamma'
p35
(lp36
F0.51632577595749596
aF0.63897848625974984
aF0.16343170998020209
asS'Fitted_events_zllgamma'
p37
(lp38
F0.025444181698741915
aF0.025443150132366636
aF0.0047591174590425811
asS'Fitted_events_znunugamma'
p39
(lp40
F0.30875911460908007
aF0.35112410787772763
aF0.9447535387356536
asS'MC_exp_err_jfake'
p41
(lp42
F0.092696159880569395
aF0.087840671052417774
aF0.070014404136676062
asS'MC_exp_events_photonjet'
p43
(lp44
F0.91086345131786439
aF0.32150020514209166
aF0.12666239823866521
asS'Fitted_err_diphoton'
p45
(lp46
F0.10556573607462306
aF0.099223918739469064
aF0.010868337680366939
asS'Fitted_err_wgamma'
p47
(lp48
F0.36665784741088453
aF0.41771688763977222
aF0.21331863400021681
asS'TOTAL_FITTED_bkg_events_err'
p49
(lp50
F0.74942433389873397
aF0.63699661441344269
aF0.44388120364271483
asS'MC_exp_events_efake'
p51
(lp52
F0.21770000085234642
aF0.03880000114440918
aF0.063200000673532486
asS'nobs'
p53
(lp54
F0
aF0
aF0
asS'MC_exp_events_znunugamma'
p55
(lp56
F0.30875926641079954
aF0.3511276278703363
aF0.94475941918441819
asS'Fitted_err_znunugamma'
p57
(lp58
F0.11001397639133513
aF0.1152653000729915
aF0.28454652821736914
asS'MC_exp_err_efake'
p59
(lp60
F0.083382407699377784
aF0.027558730772370171
aF0.036707108266808439
asS'Fitted_events_ttgamma'
p61
(lp62
F0.70278218080406263
aF0.86974869204457017
aF0.22245047193766612
asS'Fitted_err_jfake'
p63
(lp64
F0.092112852686183619
aF0.087287136097784976
aF0.06959037354947048
asS'MC_exp_events_wgamma'
p65
(lp66
F0.56254108833482164
aF0.72087329391628641
aF1.1052470699001833
asS'MC_exp_err_photonjet'
p67
(lp68
F0.56976637984129797
aF0.21105243077310623
aF0.047338379415725051
asS'MC_exp_events_jfake'
p69
(lp70
F0.1509999968111515
aF0.14099999517202377
aF0.093999996781349182
asS'TOTAL_MC_EXP_BKG_events'
p71
(lp72
F2.9228536331450412
aF2.4896782543368046
aF2.5800797159343145
asS'MC_exp_err_diphoton'
p73
(lp74
F0.1060774385456035
aF0.099760313416456275
aF0.010882169290429495
asS'MC_exp_err_ttgamma'
p75
(lp76
F0.14710246851302836
aF0.15791194224286112
aF0.041237707704663638
asS'MC_exp_err_znunugamma'
p77
(lp78
F0.11047102548581067
aF0.11587207157661771
aF0.28619084747521212
asS'MC_exp_err_zllgamma'
p79
(lp80
F0.032102378195593827
aF0.010760589824110989
aF0.0042527415353525106
as.