(dp1
S'Fitted_events_diphoton'
p2
(lp3
F39.946829857938347
aF8.957028157707807
aF13.698318193614448
aF0.94742836475340675
asS'MC_exp_err_wgamma'
p4
(lp5
F233.83290740280003
aF38.772566790118574
aF115.47462807767374
aF4.6891671774178576
asS'Fitted_err_zllgamma'
p6
(lp7
F14.45432779233232
aF2.997028976889017
aF2.0141533969353338
aF0.2514560038085123
asS'Fitted_err_ttgamma'
p8
(lp9
F27.738384977231082
aF3.6214129686466827
aF11.055811323795352
aF1.973612469497225
asS'Fitted_events_jfake'
p10
(lp11
F32.363027981884393
aF3.6680031749554995
aF25.838054398791193
aF1.0770018056495763
asS'Fitted_events_efake'
p12
(lp13
F151.56232123783226
aF20.50451724213141
aF51.822442620771881
aF4.4784041317303362
asS'names'
p14
(lp15
S'VRL1_cuts'
p16
aS'VRL2_cuts'
p17
aS'VRL3_cuts'
p18
aS'VRL4_cuts'
p19
asS'MC_exp_events_diphoton'
p20
(lp21
F39.946585992368469
aF8.9569282286836671
aF13.69841686637556
aF0.94743142655859325
asS'TOTAL_MC_EXP_BKG_err'
p22
(lp23
F242.72288075953469
aF40.335004909005207
aF118.42754788200816
aF5.6258212882985763
asS'Fitted_events_photonjet'
p24
(lp25
F21.845174232555927
aF4.7533288094918813
aF1.8089401739482436
aF0.15039323026215032
asS'TOTAL_FITTED_bkg_events'
p26
(lp27
F1686.6313273597323
aF252.18570296402743
aF734.90317381470163
aF51.538723101787703
asS'Fitted_events_wgamma'
p28
(lp29
F877.59170257708047
aF144.48878314751403
aF430.58671742318666
aF17.230019239029239
asS'Fitted_err_efake'
p30
(lp31
F9.4597610771702776
aF1.4518053160298572
aF3.3785561402780573
aF0.43655843309272196
asS'Fitted_err_photonjet'
p32
(lp33
F6.6521791693208154
aF1.1377276966750485
aF0.57017099384508829
aF0.15953216535778295
asS'MC_exp_events_zllgamma'
p34
(lp35
F52.810348638839159
aF10.6168758273449
aF7.3898111240194906
aF0.7422029415717919
asS'MC_exp_events_ttgamma'
p36
(lp37
F375.04277033066955
aF43.486875275722504
aF149.68134436716684
aF19.770935972286033
asS'Fitted_events_zllgamma'
p38
(lp39
F52.810668944422581
aF10.617067292365139
aF7.3897608939041159
aF0.74217098322749875
asS'Fitted_events_znunugamma'
p40
(lp41
F0.03468834800935524
aF0.0060974889667075897
aF0.026930752946017218
aF0.0030097832465151926
asS'MC_exp_err_jfake'
p42
(lp43
F4.9127989661261795
aF0.62143047560260456
aF9.3394449058899482
aF0.37764681139543355
asS'MC_exp_events_photonjet'
p44
(lp45
F40.691374988703316
aF8.8543581687580843
aF3.3696948751150746
aF0.2801555915977712
asS'Fitted_err_diphoton'
p46
(lp47
F1.7297988423081541
aF0.70487984214752808
aF0.61024771375898956
aF0.063221408874741369
asS'Fitted_err_wgamma'
p48
(lp49
F44.207307959063108
aF9.0355712120645091
aF22.232893049414688
aF1.5227776565179598
asS'TOTAL_FITTED_bkg_events_err'
p50
(lp51
F48.083122022094294
aF11.370830888360334
aF23.538637454273335
aF2.8753929430728076
asS'MC_exp_events_efake'
p52
(lp53
F151.56220016255975
aF20.504500016570091
aF51.822400148957968
aF4.4784000143408775
asS'nobs'
p54
(lp55
F1731
aF257
aF699
aF52
asS'MC_exp_events_znunugamma'
p56
(lp57
F0.034689504871121081
aF0.0060974895782112543
aF0.02693206190216035
aF0.0030097524466638939
asS'Fitted_err_znunugamma'
p58
(lp59
F0.013581074427403748
aF0.0021579876412829752
aF0.010440093694452606
aF0.0010586884612547877
asS'MC_exp_err_efake'
p60
(lp61
F9.5244850502077671
aF1.4617101263360404
aF3.4016566420228194
aF0.43951523820073862
asS'Fitted_events_ttgamma'
p62
(lp63
F510.47691418000875
aF59.190877650894983
aF203.732009357539
aF26.910295563888983
asS'Fitted_err_jfake'
p64
(lp65
F4.8801036910944529
aF0.6172898390750241
aF9.2784432455511965
aF0.3751510597028293
asS'MC_exp_events_wgamma'
p66
(lp67
F900.1384118012395
aF148.20030774866709
aF441.65181425294219
aF17.67286205462397
asS'MC_exp_err_photonjet'
p68
(lp69
F20.615261907007596
aF4.3540458383602232
aF1.7848039969222944
aF0.32159819252175104
asS'MC_exp_events_jfake'
p70
(lp71
F32.362999901175499
aF3.6679999697953463
aF25.837999906390905
aF1.0769999884068966
asS'TOTAL_MC_EXP_BKG_events'
p72
(lp73
F1592.5893813204264
aF244.2939427251199
aF693.47841360287021
aF44.971997741832595
asS'MC_exp_err_diphoton'
p74
(lp75
F1.740425618868308
aF0.70935399093622375
aF0.61350997926916528
aF0.063546966259383789
asS'MC_exp_err_ttgamma'
p76
(lp77
F48.492415023839584
aF5.7875971518610587
aF19.712825368814539
aF2.6787328380732265
asS'MC_exp_err_znunugamma'
p78
(lp79
F0.013671211104856839
aF0.0021728041990271949
aF0.01050805702567114
aF0.0010658954461252685
asS'MC_exp_err_zllgamma'
p80
(lp81
F14.55288974641056
aF3.0172357444351223
aF2.0279161365035328
aF0.25309512539439866
as.