(dp1
S'Fitted_events_diphoton'
p2
(lp3
F53.27722065094629
aF54.403374863799364
aF2.2968725658901654
asS'MC_exp_err_wgamma'
p4
(lp5
F7.0678265619896452
aF427.00494094865365
aF13.758240985821528
asS'Fitted_err_zllgamma'
p6
(lp7
F0.83432902140100285
aF10.23572659154479
aF1.1751742981567392
asS'Fitted_err_ttgamma'
p8
(lp9
F3.9676721796663199
aF16.941454061665567
aF38.81324119478581
asS'Fitted_events_jfake'
p10
(lp11
F19.592024740274461
aF35.694034120706604
aF23.52402258464944
asS'Fitted_events_efake'
p12
(lp13
F11.895210284952016
aF91.051373639214745
aF218.34367452868952
asS'names'
p14
(lp15
S'CRQ_cuts'
p16
aS'CRW_cuts'
p17
aS'CRT_cuts'
p18
asS'MC_exp_events_diphoton'
p19
(lp20
F53.278335508807828
aF54.403540344391963
aF2.2968442584200375
asS'TOTAL_MC_EXP_BKG_err'
p21
(lp22
F961.54219370456133
aF429.18551493919097
aF99.033697879237977
asS'Fitted_events_photonjet'
p23
(lp24
F1539.2700250591647
aF16.259081752610559
aF1.4498797229930016
asS'TOTAL_FITTED_bkg_events'
p25
(lp26
F1708.1649328509197
aF2230.9994644555236
aF1281.944057687987
asS'Fitted_events_wgamma'
p27
(lp28
F25.946095559445915
aF1811.8337583860493
aF45.563169463883675
asS'Fitted_err_efake'
p29
(lp30
F0.92478538815013067
aF5.7857070560638668
aF13.569365332742597
asS'Fitted_err_photonjet'
p31
(lp32
F49.722216974261883
aF5.6904676802023317
aF2.1096625096295023
asS'MC_exp_events_zllgamma'
p33
(lp34
F2.5457341266975915
aF46.089565797435114
aF4.1083968495446959
asS'MC_exp_events_ttgamma'
p35
(lp36
F33.346110585299954
aF128.96090882363092
aF724.88917907798441
asS'Fitted_events_zllgamma'
p37
(lp38
F2.545705970900245
aF46.089360140603823
aF4.108419006436093
asS'Fitted_events_znunugamma'
p39
(lp40
F10.25120110096139
aF0.1388373502187179
aF0.0024931025471798063
asS'MC_exp_err_jfake'
p41
(lp42
F4.3185798168072242
aF5.9576769654899877
aF3.9660603502172331
asS'MC_exp_events_photonjet'
p43
(lp44
F2869.2612719628601
aF30.297081841869144
aF2.6957864842006418
asS'Fitted_err_diphoton'
p45
(lp46
F4.7471507220081488
aF1.9826821146007056
aF0.381455393129153
asS'Fitted_err_wgamma'
p47
(lp48
F2.0675201428074583
aF51.786125446273338
aF5.2658541004582728
asS'TOTAL_FITTED_bkg_events_err'
p49
(lp50
F48.838311074401801
aF47.468980451419768
aF35.565169253859708
asS'MC_exp_events_efake'
p51
(lp52
F11.89520001411438
aF91.05130011588335
aF218.3435004837811
asS'nobs'
p53
(lp54
F1708
aF2231
aF1282
asS'MC_exp_events_znunugamma'
p55
(lp56
F10.251224116206476
aF0.1388379180028686
aF0.0024930945215424919
asS'Fitted_err_znunugamma'
p57
(lp58
F2.8776018266135912
aF0.044764895903836983
aF0.0028049327138189189
asS'MC_exp_err_efake'
p59
(lp60
F0.93107997061535996
aF5.8252828813825177
aF13.662212668851334
asS'Fitted_events_ttgamma'
p61
(lp62
F45.387449484274804
aF175.52964420232044
aF986.65552671289788
asS'Fitted_err_jfake'
p63
(lp64
F4.2899648075405805
aF5.9180693536948095
aF3.9396814125736141
asS'MC_exp_events_wgamma'
p65
(lp66
F26.613212692329455
aF1858.243924298235
aF46.736380981380918
asS'MC_exp_err_photonjet'
p67
(lp68
F959.61127103976719
aF15.002680570287815
aF4.2592539021464262
asS'MC_exp_events_jfake'
p69
(lp70
F19.59199988283217
aF35.693999925628304
aF23.523999990895391
asS'TOTAL_MC_EXP_BKG_events'
p71
(lp72
F3026.7830888891476
aF2244.8791590650762
aF1022.5965812207287
asS'MC_exp_err_diphoton'
p73
(lp74
F4.7702714049478443
aF1.9948695570363149
aF0.38395093033894595
asS'MC_exp_err_ttgamma'
p75
(lp76
F4.8858976469560709
aF17.648506434893889
aF96.355700906994073
asS'MC_exp_err_znunugamma'
p77
(lp78
F2.8977412412491073
aF0.045079099990805699
aF0.0028208461359211989
asS'MC_exp_err_zllgamma'
p79
(lp80
F0.84006602572777511
aF10.305143909778691
aF1.1831019633782716
as.