(dp1
S'Fitted_events_diphoton'
p2
(lp3
F24.553749007678299
aF2.2315963895681197
aF0.37021759826684503
aF14.497893024705428
aF2.2853575695052522
asS'MC_exp_err_wgamma'
p4
(lp5
F7.2834505365416362
aF1.0804022770806816
aF0.4710241225621572
aF5.0104250430005575
aF1.9387013718447152
asS'Fitted_err_zllgamma'
p6
(lp7
F0.60206362993891127
aF0.1136845962830272
aF0.072625745054253135
aF0.35087766144559451
aF0.16783649838302847
asS'Fitted_err_ttgamma'
p8
(lp9
F1.8021281719247628
aF1.0165190466073211
aF0.56622636876757582
aF1.1670885561906157
aF0.51185574750315255
asS'Fitted_events_jfake'
p10
(lp11
F18.038017852164256
aF3.5850037596514479
aF0.3510003920180263
aF10.378010226443823
aF1.2810013281162325
asS'Fitted_events_efake'
p12
(lp13
F15.971913534686863
aF3.7383034749890061
aF1.2988013232515936
aF5.2095047025688723
aF1.3705013923580263
asS'names'
p14
(lp15
S'VRQ_cuts'
p16
aS'VRM1L_cuts'
p17
aS'VRM2L_cuts'
p18
aS'VRM1H_cuts'
p19
aS'VRM2H_cuts'
p20
asS'MC_exp_events_diphoton'
p21
(lp22
F24.553913362325019
aF2.2317657560075252
aF0.37021906144973715
aF14.497967112743193
aF2.2853678952781364
asS'TOTAL_MC_EXP_BKG_err'
p23
(lp24
F342.23487765632467
aF68.594099841898029
aF11.583389953334702
aF187.0388741821634
aF20.30009917252179
asS'Fitted_events_photonjet'
p25
(lp26
F573.51798685428514
aF109.85588741903686
aF14.123951101166222
aF313.64803999189348
aF31.335049613886053
asS'TOTAL_FITTED_bkg_events'
p27
(lp28
F694.71569117801835
aF134.07502860674322
aF20.17852355571133
aF385.05649462962378
aF50.363226508264923
asS'Fitted_events_wgamma'
p29
(lp30
F26.986851078045056
aF3.6737443058117556
aF1.1072298258445319
aF18.591307536424125
aF6.7938292446187161
asS'Fitted_err_efake'
p31
(lp32
F1.1652236637377862
aF0.38286242714387136
aF0.19238344424821496
aF0.47798748530583607
aF0.19597666177039069
asS'Fitted_err_photonjet'
p33
(lp34
F64.461439376731335
aF15.128470797499459
aF4.2629446695977924
aF36.879748424945895
aF6.099908349952198
asS'MC_exp_events_zllgamma'
p35
(lp36
F2.0899539794339344
aF0.29430565742524395
aF0.13715032375444058
aF1.0887701903655775
aF0.27685817598034052
asS'MC_exp_events_ttgamma'
p37
(lp38
F17.564144969647074
aF7.20283129130015
aF1.7220480465654946
aF11.534997693595107
aF3.22802143341013
asS'Fitted_events_zllgamma'
p39
(lp40
F2.0899020758879012
aF0.29429518842694097
aF0.13714394862099705
aF1.088705458723505
aF0.27685324116127813
asS'Fitted_events_znunugamma'
p41
(lp42
F9.6505434553118796
aF0.89241341046233824
aF0.44628835253575749
aF5.9426824506916756
aF2.6269288374419735
asS'MC_exp_err_jfake'
p43
(lp44
F3.1048968657187421
aF0.69202887411364344
aF0.11270829121198728
aF1.7845422642500479
aF0.25775071953063472
asS'MC_exp_events_photonjet'
p45
(lp46
F1069.0832714064381
aF204.78076814152428
aF26.327470923240494
aF584.6635203241857
aF58.410107974097201
asS'Fitted_err_diphoton'
p47
(lp48
F1.971977921109467
aF0.76684176264216586
aF0.11871872134132902
aF1.31710301294657
aF0.42099197771405322
asS'Fitted_err_wgamma'
p49
(lp50
F1.9549645436378942
aF0.44000677357796203
aF0.34890580741487848
aF1.244619628811825
aF0.85629036425319582
asS'TOTAL_FITTED_bkg_events_err'
p51
(lp52
F65.576763490627783
aF15.989338717787868
aF5.0084721222442656
aF37.213224620928358
aF6.5276486540840768
asS'MC_exp_events_efake'
p53
(lp54
F15.971900008618832
aF3.7383000068366528
aF1.2987999990582466
aF5.2095000073313713
aF1.3705000020563602
asS'nobs'
p55
(lp56
F714
aF127
aF22
aF419
aF51
asS'MC_exp_events_znunugamma'
p57
(lp58
F9.6505384610048992
aF0.89241661950822315
aF0.44628480743836607
aF5.9426862770039968
aF2.6269185300053879
asS'Fitted_err_znunugamma'
p59
(lp60
F2.6689719415232633
aF0.25878351349333512
aF0.15857976443817404
aF1.6382480754807582
aF0.74950276237654778
asS'MC_exp_err_efake'
p61
(lp62
F1.1731670059727288
aF0.3854527919748541
aF0.19367661890110308
aF0.48122858729758267
aF0.19729486498139331
asS'Fitted_events_ttgamma'
p63
(lp64
F23.906727319958897
aF9.8037846587967454
aF2.3438910140073577
aF15.700351238172816
aF4.3937052811773913
asS'Fitted_err_jfake'
p65
(lp66
F3.0842584317517732
aF0.68742490875938922
aF0.11196451222858124
aF1.7726773640182205
aF0.25603525332273402
asS'MC_exp_events_wgamma'
p67
(lp68
F27.680366370876026
aF3.768135923258471
aF1.1356649901192113
aF19.069013846656578
aF6.9684581402490702
asS'MC_exp_err_photonjet'
p69
(lp70
F341.29580607857127
aF68.201814501910803
aF11.159886816138506
aF186.53201619092914
aF19.946096045257583
asS'MC_exp_events_jfake'
p71
(lp72
F18.038000047206879
aF3.5849999971687794
aF0.35099999792873859
aF10.378000024706125
aF1.2810000032186508
asS'TOTAL_MC_EXP_BKG_events'
p73
(lp74
F1184.6320886055507
aF226.49352339302931
aF31.788638149554728
aF652.38445547658762
aF76.447232154295278
asS'MC_exp_err_diphoton'
p75
(lp76
F1.9848281881957321
aF0.77094046386593584
aF0.11952534546745336
aF1.3282241616146142
aF0.42363068935198228
asS'MC_exp_err_ttgamma'
p77
(lp78
F2.3444813756653238
aF1.1374641713857758
aF0.46399992983546745
aF1.5243341446908358
aF0.50721791917563064
asS'MC_exp_err_znunugamma'
p79
(lp80
F2.6873833201854325
aF0.26044731861494014
aF0.15926888801945618
aF1.6496308300712939
aF0.75437037712767974
asS'MC_exp_err_zllgamma'
p81
(lp82
F0.60597941748182527
aF0.11437459723753929
aF0.07301327342586901
aF0.35299779787186947
aF0.16895500156864524
as.